; Function Attrs: mustprogress uwtable
define dso_local void @_ZN5vcpkg17VcpkgCmdArguments27imbue_from_fake_environmentERKSt3mapINS_13StringLiteralENSt7__cxx1112basic_stringIcSt11char_traitsIcESaIcEEESt4lessIvESaISt4pairIKS2_S8_EEE(ptr noundef nonnull align 8 dereferenceable(1840) %0, ptr noundef nonnull align 8 dereferenceable(48) %1) local_unnamed_addr #4 align 2 personality ptr @__gxx_personality_v0 {
  %3 = alloca %"class.std::function", align 8
  %4 = ptrtoint ptr %1 to i64
  %5 = getelementptr inbounds nuw i8, ptr %3, i64 16
  %6 = getelementptr inbounds nuw i8, ptr %3, i64 24
  %7 = getelementptr inbounds nuw i8, ptr %3, i64 8
  store i64 0, ptr %7, align 8
  store i64 %4, ptr %3, align 8, !tbaa !315
  store ptr @"_ZNSt17_Function_handlerIFN5vcpkg8OptionalINSt7__cxx1112basic_stringIcSt11char_traitsIcESaIcEEEEENS0_11ZStringViewEEZNS0_17VcpkgCmdArguments27imbue_from_fake_environmentERKSt3mapINS0_13StringLiteralES7_St4lessIvESaISt4pairIKSD_S7_EEEE3$_0E9_M_invokeERKSt9_Any_dataOS9_", ptr %6, align 8, !tbaa !219
  store ptr @"_ZNSt17_Function_handlerIFN5vcpkg8OptionalINSt7__cxx1112basic_stringIcSt11char_traitsIcESaIcEEEEENS0_11ZStringViewEEZNS0_17VcpkgCmdArguments27imbue_from_fake_environmentERKSt3mapINS0_13StringLiteralES7_St4lessIvESaISt4pairIKSD_S7_EEEE3$_0E10_M_managerERSt9_Any_dataRKSP_St18_Manager_operation", ptr %5, align 8, !tbaa !222
  invoke void @_ZN5vcpkg17VcpkgCmdArguments27imbue_from_environment_implESt8functionIFNS_8OptionalINSt7__cxx1112basic_stringIcSt11char_traitsIcESaIcEEEEENS_11ZStringViewEEE(ptr noundef nonnull align 8 dereferenceable(1840) %0, ptr noundef nonnull %3)
          to label %8 unwind label %15

8:                                                ; preds = %2
  %9 = load ptr, ptr %5, align 8, !tbaa !222
  %.not.i = icmp eq ptr %9, null
  br i1 %.not.i, label %_ZNSt14_Function_baseD2Ev.exit, label %10

10:                                               ; preds = %8
  %11 = invoke noundef zeroext i1 %9(ptr noundef nonnull align 8 dereferenceable(32) %3, ptr noundef nonnull align 8 dereferenceable(32) %3, i32 noundef 3)
          to label %_ZNSt14_Function_baseD2Ev.exit unwind label %12

12:                                               ; preds = %10
  %13 = landingpad { ptr, i32 }
          catch ptr null
  %14 = extractvalue { ptr, i32 } %13, 0
  call void @__clang_call_terminate(ptr %14) #28
  unreachable

_ZNSt14_Function_baseD2Ev.exit:                   ; preds = %8, %10
  ret void

15:                                               ; preds = %2
  %16 = landingpad { ptr, i32 }
          cleanup
  %17 = load ptr, ptr %5, align 8, !tbaa !222
  %.not.i3 = icmp eq ptr %17, null
  br i1 %.not.i3, label %_ZNSt14_Function_baseD2Ev.exit4, label %18

18:                                               ; preds = %15
  %19 = invoke noundef zeroext i1 %17(ptr noundef nonnull align 8 dereferenceable(32) %3, ptr noundef nonnull align 8 dereferenceable(32) %3, i32 noundef 3)
          to label %_ZNSt14_Function_baseD2Ev.exit4 unwind label %20

20:                                               ; preds = %18
  %21 = landingpad { ptr, i32 }
          catch ptr null
  %22 = extractvalue { ptr, i32 } %21, 0
  call void @__clang_call_terminate(ptr %22) #28
  unreachable

_ZNSt14_Function_baseD2Ev.exit4:                  ; preds = %15, %18
  resume { ptr, i32 } %16
}